ARM GAS  C:\Users\james\AppData\Local\Temp\ccdeguT1.s 			page 1


   1              		.cpu cortex-m3
   2              		.arch armv7-m
   3              		.fpu softvfp
   4              		.eabi_attribute 20, 1
   5              		.eabi_attribute 21, 1
   6              		.eabi_attribute 23, 3
   7              		.eabi_attribute 24, 1
   8              		.eabi_attribute 25, 1
   9              		.eabi_attribute 26, 1
  10              		.eabi_attribute 30, 1
  11              		.eabi_attribute 34, 1
  12              		.eabi_attribute 18, 4
  13              		.file	"main.c"
  14              		.text
  15              	.Ltext0:
  16              		.cfi_sections	.debug_frame
  17              		.section	.text.MX_GPIO_Init,"ax",%progbits
  18              		.align	1
  19              		.syntax unified
  20              		.thumb
  21              		.thumb_func
  23              	MX_GPIO_Init:
  24              	.LFB73:
  25              		.file 1 "Core/Src/main.c"
   1:Core/Src/main.c **** /* USER CODE BEGIN Header */
   2:Core/Src/main.c **** /**
   3:Core/Src/main.c ****   ******************************************************************************
   4:Core/Src/main.c ****   * @file           : main.c
   5:Core/Src/main.c ****   * @brief          : Main program body
   6:Core/Src/main.c ****   ******************************************************************************
   7:Core/Src/main.c ****   * @attention
   8:Core/Src/main.c ****   *
   9:Core/Src/main.c ****   * Copyright (c) 2023 STMicroelectronics.
  10:Core/Src/main.c ****   * All rights reserved.
  11:Core/Src/main.c ****   *
  12:Core/Src/main.c ****   * This software is licensed under terms that can be found in the LICENSE file
  13:Core/Src/main.c ****   * in the root directory of this software component.
  14:Core/Src/main.c ****   * If no LICENSE file comes with this software, it is provided AS-IS.
  15:Core/Src/main.c ****   *
  16:Core/Src/main.c ****   ******************************************************************************
  17:Core/Src/main.c ****   */
  18:Core/Src/main.c **** /* USER CODE END Header */
  19:Core/Src/main.c **** /* Includes ------------------------------------------------------------------*/
  20:Core/Src/main.c **** #include "main.h"
  21:Core/Src/main.c **** 
  22:Core/Src/main.c **** /* Private includes ----------------------------------------------------------*/
  23:Core/Src/main.c **** /* USER CODE BEGIN Includes */
  24:Core/Src/main.c **** 
  25:Core/Src/main.c **** /* USER CODE END Includes */
  26:Core/Src/main.c **** 
  27:Core/Src/main.c **** /* Private typedef -----------------------------------------------------------*/
  28:Core/Src/main.c **** /* USER CODE BEGIN PTD */
  29:Core/Src/main.c **** 
  30:Core/Src/main.c **** /* USER CODE END PTD */
  31:Core/Src/main.c **** 
  32:Core/Src/main.c **** /* Private define ------------------------------------------------------------*/
  33:Core/Src/main.c **** /* USER CODE BEGIN PD */
ARM GAS  C:\Users\james\AppData\Local\Temp\ccdeguT1.s 			page 2


  34:Core/Src/main.c **** 
  35:Core/Src/main.c **** /* USER CODE END PD */
  36:Core/Src/main.c **** 
  37:Core/Src/main.c **** /* Private macro -------------------------------------------------------------*/
  38:Core/Src/main.c **** /* USER CODE BEGIN PM */
  39:Core/Src/main.c **** 
  40:Core/Src/main.c **** /* USER CODE END PM */
  41:Core/Src/main.c **** 
  42:Core/Src/main.c **** /* Private variables ---------------------------------------------------------*/
  43:Core/Src/main.c **** ADC_HandleTypeDef hadc1;
  44:Core/Src/main.c **** 
  45:Core/Src/main.c **** TIM_HandleTypeDef htim2;
  46:Core/Src/main.c **** 
  47:Core/Src/main.c **** UART_HandleTypeDef huart1;
  48:Core/Src/main.c **** 
  49:Core/Src/main.c **** /* USER CODE BEGIN PV */
  50:Core/Src/main.c **** 
  51:Core/Src/main.c **** /* USER CODE END PV */
  52:Core/Src/main.c **** 
  53:Core/Src/main.c **** /* Private function prototypes -----------------------------------------------*/
  54:Core/Src/main.c **** void SystemClock_Config(void);
  55:Core/Src/main.c **** static void MX_GPIO_Init(void);
  56:Core/Src/main.c **** static void MX_ADC1_Init(void);
  57:Core/Src/main.c **** static void MX_USART1_UART_Init(void);
  58:Core/Src/main.c **** static void MX_TIM2_Init(void);
  59:Core/Src/main.c **** /* USER CODE BEGIN PFP */
  60:Core/Src/main.c **** 
  61:Core/Src/main.c **** /* USER CODE END PFP */
  62:Core/Src/main.c **** 
  63:Core/Src/main.c **** /* Private user code ---------------------------------------------------------*/
  64:Core/Src/main.c **** /* USER CODE BEGIN 0 */
  65:Core/Src/main.c **** 
  66:Core/Src/main.c **** /* USER CODE END 0 */
  67:Core/Src/main.c **** 
  68:Core/Src/main.c **** /**
  69:Core/Src/main.c ****   * @brief  The application entry point.
  70:Core/Src/main.c ****   * @retval int
  71:Core/Src/main.c ****   */
  72:Core/Src/main.c **** int main(void)
  73:Core/Src/main.c **** {
  74:Core/Src/main.c ****   /* USER CODE BEGIN 1 */
  75:Core/Src/main.c **** 
  76:Core/Src/main.c ****   /* USER CODE END 1 */
  77:Core/Src/main.c **** 
  78:Core/Src/main.c ****   /* MCU Configuration--------------------------------------------------------*/
  79:Core/Src/main.c **** 
  80:Core/Src/main.c ****   /* Reset of all peripherals, Initializes the Flash interface and the Systick. */
  81:Core/Src/main.c ****   HAL_Init();
  82:Core/Src/main.c **** 
  83:Core/Src/main.c ****   /* USER CODE BEGIN Init */
  84:Core/Src/main.c **** 
  85:Core/Src/main.c ****   /* USER CODE END Init */
  86:Core/Src/main.c **** 
  87:Core/Src/main.c ****   /* Configure the system clock */
  88:Core/Src/main.c ****   SystemClock_Config();
  89:Core/Src/main.c **** 
  90:Core/Src/main.c ****   /* USER CODE BEGIN SysInit */
ARM GAS  C:\Users\james\AppData\Local\Temp\ccdeguT1.s 			page 3


  91:Core/Src/main.c **** 
  92:Core/Src/main.c ****   /* USER CODE END SysInit */
  93:Core/Src/main.c **** 
  94:Core/Src/main.c ****   /* Initialize all configured peripherals */
  95:Core/Src/main.c ****   MX_GPIO_Init();
  96:Core/Src/main.c ****   MX_ADC1_Init();
  97:Core/Src/main.c ****   MX_USART1_UART_Init();
  98:Core/Src/main.c ****   MX_TIM2_Init();
  99:Core/Src/main.c ****   /* USER CODE BEGIN 2 */
 100:Core/Src/main.c ****   HAL_TIM_Base_Start_IT(&htim2);
 101:Core/Src/main.c ****   SensorInit();
 102:Core/Src/main.c ****   TransceiverInit();
 103:Core/Src/main.c ****   /* USER CODE END 2 */
 104:Core/Src/main.c **** 
 105:Core/Src/main.c ****   /* Infinite loop */
 106:Core/Src/main.c ****   /* USER CODE BEGIN WHILE */
 107:Core/Src/main.c ****   while (1)
 108:Core/Src/main.c ****   {
 109:Core/Src/main.c ****     /* USER CODE END WHILE */
 110:Core/Src/main.c **** 
 111:Core/Src/main.c ****     /* USER CODE BEGIN 3 */
 112:Core/Src/main.c ****     CheckCommand();
 113:Core/Src/main.c ****     if(invokeCommandFlag)
 114:Core/Src/main.c ****     {
 115:Core/Src/main.c ****       InvokeCommand();
 116:Core/Src/main.c ****     }
 117:Core/Src/main.c **** 
 118:Core/Src/main.c ****     HAL_Delay(10);
 119:Core/Src/main.c ****   }
 120:Core/Src/main.c ****   /* USER CODE END 3 */
 121:Core/Src/main.c **** }
 122:Core/Src/main.c **** 
 123:Core/Src/main.c **** /**
 124:Core/Src/main.c ****   * @brief System Clock Configuration
 125:Core/Src/main.c ****   * @retval None
 126:Core/Src/main.c ****   */
 127:Core/Src/main.c **** void SystemClock_Config(void)
 128:Core/Src/main.c **** {
 129:Core/Src/main.c ****   RCC_OscInitTypeDef RCC_OscInitStruct = {0};
 130:Core/Src/main.c ****   RCC_ClkInitTypeDef RCC_ClkInitStruct = {0};
 131:Core/Src/main.c ****   RCC_PeriphCLKInitTypeDef PeriphClkInit = {0};
 132:Core/Src/main.c **** 
 133:Core/Src/main.c ****   /** Initializes the RCC Oscillators according to the specified parameters
 134:Core/Src/main.c ****   * in the RCC_OscInitTypeDef structure.
 135:Core/Src/main.c ****   */
 136:Core/Src/main.c ****   RCC_OscInitStruct.OscillatorType = RCC_OSCILLATORTYPE_HSI;
 137:Core/Src/main.c ****   RCC_OscInitStruct.HSIState = RCC_HSI_ON;
 138:Core/Src/main.c ****   RCC_OscInitStruct.HSICalibrationValue = RCC_HSICALIBRATION_DEFAULT;
 139:Core/Src/main.c ****   RCC_OscInitStruct.PLL.PLLState = RCC_PLL_NONE;
 140:Core/Src/main.c ****   if (HAL_RCC_OscConfig(&RCC_OscInitStruct) != HAL_OK)
 141:Core/Src/main.c ****   {
 142:Core/Src/main.c ****     Error_Handler();
 143:Core/Src/main.c ****   }
 144:Core/Src/main.c **** 
 145:Core/Src/main.c ****   /** Initializes the CPU, AHB and APB buses clocks
 146:Core/Src/main.c ****   */
 147:Core/Src/main.c ****   RCC_ClkInitStruct.ClockType = RCC_CLOCKTYPE_HCLK|RCC_CLOCKTYPE_SYSCLK
ARM GAS  C:\Users\james\AppData\Local\Temp\ccdeguT1.s 			page 4


 148:Core/Src/main.c ****                               |RCC_CLOCKTYPE_PCLK1|RCC_CLOCKTYPE_PCLK2;
 149:Core/Src/main.c ****   RCC_ClkInitStruct.SYSCLKSource = RCC_SYSCLKSOURCE_HSI;
 150:Core/Src/main.c ****   RCC_ClkInitStruct.AHBCLKDivider = RCC_SYSCLK_DIV1;
 151:Core/Src/main.c ****   RCC_ClkInitStruct.APB1CLKDivider = RCC_HCLK_DIV1;
 152:Core/Src/main.c ****   RCC_ClkInitStruct.APB2CLKDivider = RCC_HCLK_DIV1;
 153:Core/Src/main.c **** 
 154:Core/Src/main.c ****   if (HAL_RCC_ClockConfig(&RCC_ClkInitStruct, FLASH_LATENCY_0) != HAL_OK)
 155:Core/Src/main.c ****   {
 156:Core/Src/main.c ****     Error_Handler();
 157:Core/Src/main.c ****   }
 158:Core/Src/main.c ****   PeriphClkInit.PeriphClockSelection = RCC_PERIPHCLK_ADC;
 159:Core/Src/main.c ****   PeriphClkInit.AdcClockSelection = RCC_ADCPCLK2_DIV2;
 160:Core/Src/main.c ****   if (HAL_RCCEx_PeriphCLKConfig(&PeriphClkInit) != HAL_OK)
 161:Core/Src/main.c ****   {
 162:Core/Src/main.c ****     Error_Handler();
 163:Core/Src/main.c ****   }
 164:Core/Src/main.c **** }
 165:Core/Src/main.c **** 
 166:Core/Src/main.c **** /**
 167:Core/Src/main.c ****   * @brief ADC1 Initialization Function
 168:Core/Src/main.c ****   * @param None
 169:Core/Src/main.c ****   * @retval None
 170:Core/Src/main.c ****   */
 171:Core/Src/main.c **** static void MX_ADC1_Init(void)
 172:Core/Src/main.c **** {
 173:Core/Src/main.c **** 
 174:Core/Src/main.c ****   /* USER CODE BEGIN ADC1_Init 0 */
 175:Core/Src/main.c **** 
 176:Core/Src/main.c ****   /* USER CODE END ADC1_Init 0 */
 177:Core/Src/main.c **** 
 178:Core/Src/main.c ****   ADC_ChannelConfTypeDef sConfig = {0};
 179:Core/Src/main.c **** 
 180:Core/Src/main.c ****   /* USER CODE BEGIN ADC1_Init 1 */
 181:Core/Src/main.c **** 
 182:Core/Src/main.c ****   /* USER CODE END ADC1_Init 1 */
 183:Core/Src/main.c **** 
 184:Core/Src/main.c ****   /** Common config
 185:Core/Src/main.c ****   */
 186:Core/Src/main.c ****   hadc1.Instance = ADC1;
 187:Core/Src/main.c ****   hadc1.Init.ScanConvMode = ADC_SCAN_DISABLE;
 188:Core/Src/main.c ****   hadc1.Init.ContinuousConvMode = ENABLE;
 189:Core/Src/main.c ****   hadc1.Init.DiscontinuousConvMode = DISABLE;
 190:Core/Src/main.c ****   hadc1.Init.ExternalTrigConv = ADC_SOFTWARE_START;
 191:Core/Src/main.c ****   hadc1.Init.DataAlign = ADC_DATAALIGN_RIGHT;
 192:Core/Src/main.c ****   hadc1.Init.NbrOfConversion = 1;
 193:Core/Src/main.c ****   if (HAL_ADC_Init(&hadc1) != HAL_OK)
 194:Core/Src/main.c ****   {
 195:Core/Src/main.c ****     Error_Handler();
 196:Core/Src/main.c ****   }
 197:Core/Src/main.c **** 
 198:Core/Src/main.c ****   /** Configure Regular Channel
 199:Core/Src/main.c ****   */
 200:Core/Src/main.c ****   sConfig.Channel = ADC_CHANNEL_0;
 201:Core/Src/main.c ****   sConfig.Rank = ADC_REGULAR_RANK_1;
 202:Core/Src/main.c ****   sConfig.SamplingTime = ADC_SAMPLETIME_1CYCLE_5;
 203:Core/Src/main.c ****   if (HAL_ADC_ConfigChannel(&hadc1, &sConfig) != HAL_OK)
 204:Core/Src/main.c ****   {
ARM GAS  C:\Users\james\AppData\Local\Temp\ccdeguT1.s 			page 5


 205:Core/Src/main.c ****     Error_Handler();
 206:Core/Src/main.c ****   }
 207:Core/Src/main.c ****   /* USER CODE BEGIN ADC1_Init 2 */
 208:Core/Src/main.c **** 
 209:Core/Src/main.c ****   /* USER CODE END ADC1_Init 2 */
 210:Core/Src/main.c **** 
 211:Core/Src/main.c **** }
 212:Core/Src/main.c **** 
 213:Core/Src/main.c **** /**
 214:Core/Src/main.c ****   * @brief TIM2 Initialization Function
 215:Core/Src/main.c ****   * @param None
 216:Core/Src/main.c ****   * @retval None
 217:Core/Src/main.c ****   */
 218:Core/Src/main.c **** static void MX_TIM2_Init(void)
 219:Core/Src/main.c **** {
 220:Core/Src/main.c **** 
 221:Core/Src/main.c ****   /* USER CODE BEGIN TIM2_Init 0 */
 222:Core/Src/main.c **** 
 223:Core/Src/main.c ****   /* USER CODE END TIM2_Init 0 */
 224:Core/Src/main.c **** 
 225:Core/Src/main.c ****   TIM_ClockConfigTypeDef sClockSourceConfig = {0};
 226:Core/Src/main.c ****   TIM_MasterConfigTypeDef sMasterConfig = {0};
 227:Core/Src/main.c **** 
 228:Core/Src/main.c ****   /* USER CODE BEGIN TIM2_Init 1 */
 229:Core/Src/main.c **** 
 230:Core/Src/main.c ****   /* USER CODE END TIM2_Init 1 */
 231:Core/Src/main.c ****   htim2.Instance = TIM2;
 232:Core/Src/main.c ****   htim2.Init.Prescaler = 7999;
 233:Core/Src/main.c ****   htim2.Init.CounterMode = TIM_COUNTERMODE_UP;
 234:Core/Src/main.c ****   htim2.Init.Period = 9;
 235:Core/Src/main.c ****   htim2.Init.ClockDivision = TIM_CLOCKDIVISION_DIV1;
 236:Core/Src/main.c ****   htim2.Init.AutoReloadPreload = TIM_AUTORELOAD_PRELOAD_DISABLE;
 237:Core/Src/main.c ****   if (HAL_TIM_Base_Init(&htim2) != HAL_OK)
 238:Core/Src/main.c ****   {
 239:Core/Src/main.c ****     Error_Handler();
 240:Core/Src/main.c ****   }
 241:Core/Src/main.c ****   sClockSourceConfig.ClockSource = TIM_CLOCKSOURCE_INTERNAL;
 242:Core/Src/main.c ****   if (HAL_TIM_ConfigClockSource(&htim2, &sClockSourceConfig) != HAL_OK)
 243:Core/Src/main.c ****   {
 244:Core/Src/main.c ****     Error_Handler();
 245:Core/Src/main.c ****   }
 246:Core/Src/main.c ****   sMasterConfig.MasterOutputTrigger = TIM_TRGO_RESET;
 247:Core/Src/main.c ****   sMasterConfig.MasterSlaveMode = TIM_MASTERSLAVEMODE_DISABLE;
 248:Core/Src/main.c ****   if (HAL_TIMEx_MasterConfigSynchronization(&htim2, &sMasterConfig) != HAL_OK)
 249:Core/Src/main.c ****   {
 250:Core/Src/main.c ****     Error_Handler();
 251:Core/Src/main.c ****   }
 252:Core/Src/main.c ****   /* USER CODE BEGIN TIM2_Init 2 */
 253:Core/Src/main.c **** 
 254:Core/Src/main.c ****   /* USER CODE END TIM2_Init 2 */
 255:Core/Src/main.c **** 
 256:Core/Src/main.c **** }
 257:Core/Src/main.c **** 
 258:Core/Src/main.c **** /**
 259:Core/Src/main.c ****   * @brief USART1 Initialization Function
 260:Core/Src/main.c ****   * @param None
 261:Core/Src/main.c ****   * @retval None
ARM GAS  C:\Users\james\AppData\Local\Temp\ccdeguT1.s 			page 6


 262:Core/Src/main.c ****   */
 263:Core/Src/main.c **** static void MX_USART1_UART_Init(void)
 264:Core/Src/main.c **** {
 265:Core/Src/main.c **** 
 266:Core/Src/main.c ****   /* USER CODE BEGIN USART1_Init 0 */
 267:Core/Src/main.c **** 
 268:Core/Src/main.c ****   /* USER CODE END USART1_Init 0 */
 269:Core/Src/main.c **** 
 270:Core/Src/main.c ****   /* USER CODE BEGIN USART1_Init 1 */
 271:Core/Src/main.c **** 
 272:Core/Src/main.c ****   /* USER CODE END USART1_Init 1 */
 273:Core/Src/main.c ****   huart1.Instance = USART1;
 274:Core/Src/main.c ****   huart1.Init.BaudRate = 9600;
 275:Core/Src/main.c ****   huart1.Init.WordLength = UART_WORDLENGTH_8B;
 276:Core/Src/main.c ****   huart1.Init.StopBits = UART_STOPBITS_1;
 277:Core/Src/main.c ****   huart1.Init.Parity = UART_PARITY_NONE;
 278:Core/Src/main.c ****   huart1.Init.Mode = UART_MODE_TX_RX;
 279:Core/Src/main.c ****   huart1.Init.HwFlowCtl = UART_HWCONTROL_NONE;
 280:Core/Src/main.c ****   huart1.Init.OverSampling = UART_OVERSAMPLING_16;
 281:Core/Src/main.c ****   if (HAL_UART_Init(&huart1) != HAL_OK)
 282:Core/Src/main.c ****   {
 283:Core/Src/main.c ****     Error_Handler();
 284:Core/Src/main.c ****   }
 285:Core/Src/main.c ****   /* USER CODE BEGIN USART1_Init 2 */
 286:Core/Src/main.c **** 
 287:Core/Src/main.c ****   /* USER CODE END USART1_Init 2 */
 288:Core/Src/main.c **** 
 289:Core/Src/main.c **** }
 290:Core/Src/main.c **** 
 291:Core/Src/main.c **** /**
 292:Core/Src/main.c ****   * @brief GPIO Initialization Function
 293:Core/Src/main.c ****   * @param None
 294:Core/Src/main.c ****   * @retval None
 295:Core/Src/main.c ****   */
 296:Core/Src/main.c **** static void MX_GPIO_Init(void)
 297:Core/Src/main.c **** {
  26              		.loc 1 297 1 view -0
  27              		.cfi_startproc
  28              		@ args = 0, pretend = 0, frame = 24
  29              		@ frame_needed = 0, uses_anonymous_args = 0
  30 0000 30B5     		push	{r4, r5, lr}
  31              	.LCFI0:
  32              		.cfi_def_cfa_offset 12
  33              		.cfi_offset 4, -12
  34              		.cfi_offset 5, -8
  35              		.cfi_offset 14, -4
  36 0002 87B0     		sub	sp, sp, #28
  37              	.LCFI1:
  38              		.cfi_def_cfa_offset 40
 298:Core/Src/main.c ****   GPIO_InitTypeDef GPIO_InitStruct = {0};
  39              		.loc 1 298 3 view .LVU1
  40              		.loc 1 298 20 is_stmt 0 view .LVU2
  41 0004 0024     		movs	r4, #0
  42 0006 0294     		str	r4, [sp, #8]
  43 0008 0394     		str	r4, [sp, #12]
  44 000a 0494     		str	r4, [sp, #16]
  45 000c 0594     		str	r4, [sp, #20]
ARM GAS  C:\Users\james\AppData\Local\Temp\ccdeguT1.s 			page 7


 299:Core/Src/main.c **** /* USER CODE BEGIN MX_GPIO_Init_1 */
 300:Core/Src/main.c **** /* USER CODE END MX_GPIO_Init_1 */
 301:Core/Src/main.c **** 
 302:Core/Src/main.c ****   /* GPIO Ports Clock Enable */
 303:Core/Src/main.c ****   __HAL_RCC_GPIOA_CLK_ENABLE();
  46              		.loc 1 303 3 is_stmt 1 view .LVU3
  47              	.LBB4:
  48              		.loc 1 303 3 view .LVU4
  49              		.loc 1 303 3 view .LVU5
  50 000e 0E4B     		ldr	r3, .L3
  51 0010 9A69     		ldr	r2, [r3, #24]
  52 0012 42F00402 		orr	r2, r2, #4
  53 0016 9A61     		str	r2, [r3, #24]
  54              		.loc 1 303 3 view .LVU6
  55 0018 9B69     		ldr	r3, [r3, #24]
  56 001a 03F00403 		and	r3, r3, #4
  57 001e 0193     		str	r3, [sp, #4]
  58              		.loc 1 303 3 view .LVU7
  59 0020 019B     		ldr	r3, [sp, #4]
  60              	.LBE4:
  61              		.loc 1 303 3 view .LVU8
 304:Core/Src/main.c **** 
 305:Core/Src/main.c ****   /*Configure GPIO pin Output Level */
 306:Core/Src/main.c ****   HAL_GPIO_WritePin(LED_GPIO_Port, LED_Pin, GPIO_PIN_RESET);
  62              		.loc 1 306 3 view .LVU9
  63 0022 0A4D     		ldr	r5, .L3+4
  64 0024 2246     		mov	r2, r4
  65 0026 2021     		movs	r1, #32
  66 0028 2846     		mov	r0, r5
  67 002a FFF7FEFF 		bl	HAL_GPIO_WritePin
  68              	.LVL0:
 307:Core/Src/main.c **** 
 308:Core/Src/main.c ****   /*Configure GPIO pin : LED_Pin */
 309:Core/Src/main.c ****   GPIO_InitStruct.Pin = LED_Pin;
  69              		.loc 1 309 3 view .LVU10
  70              		.loc 1 309 23 is_stmt 0 view .LVU11
  71 002e 2023     		movs	r3, #32
  72 0030 0293     		str	r3, [sp, #8]
 310:Core/Src/main.c ****   GPIO_InitStruct.Mode = GPIO_MODE_OUTPUT_PP;
  73              		.loc 1 310 3 is_stmt 1 view .LVU12
  74              		.loc 1 310 24 is_stmt 0 view .LVU13
  75 0032 0123     		movs	r3, #1
  76 0034 0393     		str	r3, [sp, #12]
 311:Core/Src/main.c ****   GPIO_InitStruct.Pull = GPIO_NOPULL;
  77              		.loc 1 311 3 is_stmt 1 view .LVU14
  78              		.loc 1 311 24 is_stmt 0 view .LVU15
  79 0036 0494     		str	r4, [sp, #16]
 312:Core/Src/main.c ****   GPIO_InitStruct.Speed = GPIO_SPEED_FREQ_LOW;
  80              		.loc 1 312 3 is_stmt 1 view .LVU16
  81              		.loc 1 312 25 is_stmt 0 view .LVU17
  82 0038 0223     		movs	r3, #2
  83 003a 0593     		str	r3, [sp, #20]
 313:Core/Src/main.c ****   HAL_GPIO_Init(LED_GPIO_Port, &GPIO_InitStruct);
  84              		.loc 1 313 3 is_stmt 1 view .LVU18
  85 003c 02A9     		add	r1, sp, #8
  86 003e 2846     		mov	r0, r5
  87 0040 FFF7FEFF 		bl	HAL_GPIO_Init
ARM GAS  C:\Users\james\AppData\Local\Temp\ccdeguT1.s 			page 8


  88              	.LVL1:
 314:Core/Src/main.c **** 
 315:Core/Src/main.c **** /* USER CODE BEGIN MX_GPIO_Init_2 */
 316:Core/Src/main.c **** /* USER CODE END MX_GPIO_Init_2 */
 317:Core/Src/main.c **** }
  89              		.loc 1 317 1 is_stmt 0 view .LVU19
  90 0044 07B0     		add	sp, sp, #28
  91              	.LCFI2:
  92              		.cfi_def_cfa_offset 12
  93              		@ sp needed
  94 0046 30BD     		pop	{r4, r5, pc}
  95              	.L4:
  96              		.align	2
  97              	.L3:
  98 0048 00100240 		.word	1073876992
  99 004c 00080140 		.word	1073809408
 100              		.cfi_endproc
 101              	.LFE73:
 103              		.section	.text.HAL_TIM_PeriodElapsedCallback,"ax",%progbits
 104              		.align	1
 105              		.global	HAL_TIM_PeriodElapsedCallback
 106              		.syntax unified
 107              		.thumb
 108              		.thumb_func
 110              	HAL_TIM_PeriodElapsedCallback:
 111              	.LVL2:
 112              	.LFB74:
 318:Core/Src/main.c **** 
 319:Core/Src/main.c **** /* USER CODE BEGIN 4 */
 320:Core/Src/main.c **** void HAL_TIM_PeriodElapsedCallback(TIM_HandleTypeDef *htim)
 321:Core/Src/main.c **** {
 113              		.loc 1 321 1 is_stmt 1 view -0
 114              		.cfi_startproc
 115              		@ args = 0, pretend = 0, frame = 0
 116              		@ frame_needed = 0, uses_anonymous_args = 0
 117              		@ link register save eliminated.
 322:Core/Src/main.c ****     if(htim->Instance == TIM2)
 118              		.loc 1 322 5 view .LVU21
 119              		.loc 1 322 12 is_stmt 0 view .LVU22
 120 0000 0368     		ldr	r3, [r0]
 121              		.loc 1 322 7 view .LVU23
 122 0002 B3F1804F 		cmp	r3, #1073741824
 123 0006 00D0     		beq	.L7
 124              	.L5:
 323:Core/Src/main.c ****     {
 324:Core/Src/main.c ****         count--;
 325:Core/Src/main.c ****         if(!count)
 326:Core/Src/main.c ****         {
 327:Core/Src/main.c ****           invokeCommandFlag = 1;
 328:Core/Src/main.c ****         }
 329:Core/Src/main.c ****     }
 330:Core/Src/main.c **** }
 125              		.loc 1 330 1 view .LVU24
 126 0008 7047     		bx	lr
 127              	.L7:
 324:Core/Src/main.c ****         if(!count)
 128              		.loc 1 324 9 is_stmt 1 view .LVU25
ARM GAS  C:\Users\james\AppData\Local\Temp\ccdeguT1.s 			page 9


 324:Core/Src/main.c ****         if(!count)
 129              		.loc 1 324 14 is_stmt 0 view .LVU26
 130 000a 054A     		ldr	r2, .L8
 131 000c 1388     		ldrh	r3, [r2]
 132 000e 013B     		subs	r3, r3, #1
 133 0010 9BB2     		uxth	r3, r3
 134 0012 1380     		strh	r3, [r2]	@ movhi
 325:Core/Src/main.c ****         {
 135              		.loc 1 325 9 is_stmt 1 view .LVU27
 325:Core/Src/main.c ****         {
 136              		.loc 1 325 11 is_stmt 0 view .LVU28
 137 0014 002B     		cmp	r3, #0
 138 0016 F7D1     		bne	.L5
 327:Core/Src/main.c ****         }
 139              		.loc 1 327 11 is_stmt 1 view .LVU29
 327:Core/Src/main.c ****         }
 140              		.loc 1 327 29 is_stmt 0 view .LVU30
 141 0018 024B     		ldr	r3, .L8+4
 142 001a 0122     		movs	r2, #1
 143 001c 1A70     		strb	r2, [r3]
 144              		.loc 1 330 1 view .LVU31
 145 001e F3E7     		b	.L5
 146              	.L9:
 147              		.align	2
 148              	.L8:
 149 0020 00000000 		.word	count
 150 0024 00000000 		.word	invokeCommandFlag
 151              		.cfi_endproc
 152              	.LFE74:
 154              		.section	.text.Error_Handler,"ax",%progbits
 155              		.align	1
 156              		.global	Error_Handler
 157              		.syntax unified
 158              		.thumb
 159              		.thumb_func
 161              	Error_Handler:
 162              	.LFB75:
 331:Core/Src/main.c **** /* USER CODE END 4 */
 332:Core/Src/main.c **** 
 333:Core/Src/main.c **** /**
 334:Core/Src/main.c ****   * @brief  This function is executed in case of error occurrence.
 335:Core/Src/main.c ****   * @retval None
 336:Core/Src/main.c ****   */
 337:Core/Src/main.c **** void Error_Handler(void)
 338:Core/Src/main.c **** {
 163              		.loc 1 338 1 is_stmt 1 view -0
 164              		.cfi_startproc
 165              		@ Volatile: function does not return.
 166              		@ args = 0, pretend = 0, frame = 0
 167              		@ frame_needed = 0, uses_anonymous_args = 0
 168              		@ link register save eliminated.
 339:Core/Src/main.c ****   /* USER CODE BEGIN Error_Handler_Debug */
 340:Core/Src/main.c ****   /* User can add his own implementation to report the HAL error return state */
 341:Core/Src/main.c ****   __disable_irq();
 169              		.loc 1 341 3 view .LVU33
 170              	.LBB5:
 171              	.LBI5:
ARM GAS  C:\Users\james\AppData\Local\Temp\ccdeguT1.s 			page 10


 172              		.file 2 "Drivers/CMSIS/Include/cmsis_gcc.h"
   1:Drivers/CMSIS/Include/cmsis_gcc.h **** /**************************************************************************//**
   2:Drivers/CMSIS/Include/cmsis_gcc.h ****  * @file     cmsis_gcc.h
   3:Drivers/CMSIS/Include/cmsis_gcc.h ****  * @brief    CMSIS compiler GCC header file
   4:Drivers/CMSIS/Include/cmsis_gcc.h ****  * @version  V5.0.4
   5:Drivers/CMSIS/Include/cmsis_gcc.h ****  * @date     09. April 2018
   6:Drivers/CMSIS/Include/cmsis_gcc.h ****  ******************************************************************************/
   7:Drivers/CMSIS/Include/cmsis_gcc.h **** /*
   8:Drivers/CMSIS/Include/cmsis_gcc.h ****  * Copyright (c) 2009-2018 Arm Limited. All rights reserved.
   9:Drivers/CMSIS/Include/cmsis_gcc.h ****  *
  10:Drivers/CMSIS/Include/cmsis_gcc.h ****  * SPDX-License-Identifier: Apache-2.0
  11:Drivers/CMSIS/Include/cmsis_gcc.h ****  *
  12:Drivers/CMSIS/Include/cmsis_gcc.h ****  * Licensed under the Apache License, Version 2.0 (the License); you may
  13:Drivers/CMSIS/Include/cmsis_gcc.h ****  * not use this file except in compliance with the License.
  14:Drivers/CMSIS/Include/cmsis_gcc.h ****  * You may obtain a copy of the License at
  15:Drivers/CMSIS/Include/cmsis_gcc.h ****  *
  16:Drivers/CMSIS/Include/cmsis_gcc.h ****  * www.apache.org/licenses/LICENSE-2.0
  17:Drivers/CMSIS/Include/cmsis_gcc.h ****  *
  18:Drivers/CMSIS/Include/cmsis_gcc.h ****  * Unless required by applicable law or agreed to in writing, software
  19:Drivers/CMSIS/Include/cmsis_gcc.h ****  * distributed under the License is distributed on an AS IS BASIS, WITHOUT
  20:Drivers/CMSIS/Include/cmsis_gcc.h ****  * WARRANTIES OR CONDITIONS OF ANY KIND, either express or implied.
  21:Drivers/CMSIS/Include/cmsis_gcc.h ****  * See the License for the specific language governing permissions and
  22:Drivers/CMSIS/Include/cmsis_gcc.h ****  * limitations under the License.
  23:Drivers/CMSIS/Include/cmsis_gcc.h ****  */
  24:Drivers/CMSIS/Include/cmsis_gcc.h **** 
  25:Drivers/CMSIS/Include/cmsis_gcc.h **** #ifndef __CMSIS_GCC_H
  26:Drivers/CMSIS/Include/cmsis_gcc.h **** #define __CMSIS_GCC_H
  27:Drivers/CMSIS/Include/cmsis_gcc.h **** 
  28:Drivers/CMSIS/Include/cmsis_gcc.h **** /* ignore some GCC warnings */
  29:Drivers/CMSIS/Include/cmsis_gcc.h **** #pragma GCC diagnostic push
  30:Drivers/CMSIS/Include/cmsis_gcc.h **** #pragma GCC diagnostic ignored "-Wsign-conversion"
  31:Drivers/CMSIS/Include/cmsis_gcc.h **** #pragma GCC diagnostic ignored "-Wconversion"
  32:Drivers/CMSIS/Include/cmsis_gcc.h **** #pragma GCC diagnostic ignored "-Wunused-parameter"
  33:Drivers/CMSIS/Include/cmsis_gcc.h **** 
  34:Drivers/CMSIS/Include/cmsis_gcc.h **** /* Fallback for __has_builtin */
  35:Drivers/CMSIS/Include/cmsis_gcc.h **** #ifndef __has_builtin
  36:Drivers/CMSIS/Include/cmsis_gcc.h ****   #define __has_builtin(x) (0)
  37:Drivers/CMSIS/Include/cmsis_gcc.h **** #endif
  38:Drivers/CMSIS/Include/cmsis_gcc.h **** 
  39:Drivers/CMSIS/Include/cmsis_gcc.h **** /* CMSIS compiler specific defines */
  40:Drivers/CMSIS/Include/cmsis_gcc.h **** #ifndef   __ASM
  41:Drivers/CMSIS/Include/cmsis_gcc.h ****   #define __ASM                                  __asm
  42:Drivers/CMSIS/Include/cmsis_gcc.h **** #endif
  43:Drivers/CMSIS/Include/cmsis_gcc.h **** #ifndef   __INLINE
  44:Drivers/CMSIS/Include/cmsis_gcc.h ****   #define __INLINE                               inline
  45:Drivers/CMSIS/Include/cmsis_gcc.h **** #endif
  46:Drivers/CMSIS/Include/cmsis_gcc.h **** #ifndef   __STATIC_INLINE
  47:Drivers/CMSIS/Include/cmsis_gcc.h ****   #define __STATIC_INLINE                        static inline
  48:Drivers/CMSIS/Include/cmsis_gcc.h **** #endif
  49:Drivers/CMSIS/Include/cmsis_gcc.h **** #ifndef   __STATIC_FORCEINLINE                 
  50:Drivers/CMSIS/Include/cmsis_gcc.h ****   #define __STATIC_FORCEINLINE                   __attribute__((always_inline)) static inline
  51:Drivers/CMSIS/Include/cmsis_gcc.h **** #endif                                           
  52:Drivers/CMSIS/Include/cmsis_gcc.h **** #ifndef   __NO_RETURN
  53:Drivers/CMSIS/Include/cmsis_gcc.h ****   #define __NO_RETURN                            __attribute__((__noreturn__))
  54:Drivers/CMSIS/Include/cmsis_gcc.h **** #endif
  55:Drivers/CMSIS/Include/cmsis_gcc.h **** #ifndef   __USED
  56:Drivers/CMSIS/Include/cmsis_gcc.h ****   #define __USED                                 __attribute__((used))
ARM GAS  C:\Users\james\AppData\Local\Temp\ccdeguT1.s 			page 11


  57:Drivers/CMSIS/Include/cmsis_gcc.h **** #endif
  58:Drivers/CMSIS/Include/cmsis_gcc.h **** #ifndef   __WEAK
  59:Drivers/CMSIS/Include/cmsis_gcc.h ****   #define __WEAK                                 __attribute__((weak))
  60:Drivers/CMSIS/Include/cmsis_gcc.h **** #endif
  61:Drivers/CMSIS/Include/cmsis_gcc.h **** #ifndef   __PACKED
  62:Drivers/CMSIS/Include/cmsis_gcc.h ****   #define __PACKED                               __attribute__((packed, aligned(1)))
  63:Drivers/CMSIS/Include/cmsis_gcc.h **** #endif
  64:Drivers/CMSIS/Include/cmsis_gcc.h **** #ifndef   __PACKED_STRUCT
  65:Drivers/CMSIS/Include/cmsis_gcc.h ****   #define __PACKED_STRUCT                        struct __attribute__((packed, aligned(1)))
  66:Drivers/CMSIS/Include/cmsis_gcc.h **** #endif
  67:Drivers/CMSIS/Include/cmsis_gcc.h **** #ifndef   __PACKED_UNION
  68:Drivers/CMSIS/Include/cmsis_gcc.h ****   #define __PACKED_UNION                         union __attribute__((packed, aligned(1)))
  69:Drivers/CMSIS/Include/cmsis_gcc.h **** #endif
  70:Drivers/CMSIS/Include/cmsis_gcc.h **** #ifndef   __UNALIGNED_UINT32        /* deprecated */
  71:Drivers/CMSIS/Include/cmsis_gcc.h ****   #pragma GCC diagnostic push
  72:Drivers/CMSIS/Include/cmsis_gcc.h ****   #pragma GCC diagnostic ignored "-Wpacked"
  73:Drivers/CMSIS/Include/cmsis_gcc.h ****   #pragma GCC diagnostic ignored "-Wattributes"
  74:Drivers/CMSIS/Include/cmsis_gcc.h ****   struct __attribute__((packed)) T_UINT32 { uint32_t v; };
  75:Drivers/CMSIS/Include/cmsis_gcc.h ****   #pragma GCC diagnostic pop
  76:Drivers/CMSIS/Include/cmsis_gcc.h ****   #define __UNALIGNED_UINT32(x)                  (((struct T_UINT32 *)(x))->v)
  77:Drivers/CMSIS/Include/cmsis_gcc.h **** #endif
  78:Drivers/CMSIS/Include/cmsis_gcc.h **** #ifndef   __UNALIGNED_UINT16_WRITE
  79:Drivers/CMSIS/Include/cmsis_gcc.h ****   #pragma GCC diagnostic push
  80:Drivers/CMSIS/Include/cmsis_gcc.h ****   #pragma GCC diagnostic ignored "-Wpacked"
  81:Drivers/CMSIS/Include/cmsis_gcc.h ****   #pragma GCC diagnostic ignored "-Wattributes"
  82:Drivers/CMSIS/Include/cmsis_gcc.h ****   __PACKED_STRUCT T_UINT16_WRITE { uint16_t v; };
  83:Drivers/CMSIS/Include/cmsis_gcc.h ****   #pragma GCC diagnostic pop
  84:Drivers/CMSIS/Include/cmsis_gcc.h ****   #define __UNALIGNED_UINT16_WRITE(addr, val)    (void)((((struct T_UINT16_WRITE *)(void *)(addr))-
  85:Drivers/CMSIS/Include/cmsis_gcc.h **** #endif
  86:Drivers/CMSIS/Include/cmsis_gcc.h **** #ifndef   __UNALIGNED_UINT16_READ
  87:Drivers/CMSIS/Include/cmsis_gcc.h ****   #pragma GCC diagnostic push
  88:Drivers/CMSIS/Include/cmsis_gcc.h ****   #pragma GCC diagnostic ignored "-Wpacked"
  89:Drivers/CMSIS/Include/cmsis_gcc.h ****   #pragma GCC diagnostic ignored "-Wattributes"
  90:Drivers/CMSIS/Include/cmsis_gcc.h ****   __PACKED_STRUCT T_UINT16_READ { uint16_t v; };
  91:Drivers/CMSIS/Include/cmsis_gcc.h ****   #pragma GCC diagnostic pop
  92:Drivers/CMSIS/Include/cmsis_gcc.h ****   #define __UNALIGNED_UINT16_READ(addr)          (((const struct T_UINT16_READ *)(const void *)(add
  93:Drivers/CMSIS/Include/cmsis_gcc.h **** #endif
  94:Drivers/CMSIS/Include/cmsis_gcc.h **** #ifndef   __UNALIGNED_UINT32_WRITE
  95:Drivers/CMSIS/Include/cmsis_gcc.h ****   #pragma GCC diagnostic push
  96:Drivers/CMSIS/Include/cmsis_gcc.h ****   #pragma GCC diagnostic ignored "-Wpacked"
  97:Drivers/CMSIS/Include/cmsis_gcc.h ****   #pragma GCC diagnostic ignored "-Wattributes"
  98:Drivers/CMSIS/Include/cmsis_gcc.h ****   __PACKED_STRUCT T_UINT32_WRITE { uint32_t v; };
  99:Drivers/CMSIS/Include/cmsis_gcc.h ****   #pragma GCC diagnostic pop
 100:Drivers/CMSIS/Include/cmsis_gcc.h ****   #define __UNALIGNED_UINT32_WRITE(addr, val)    (void)((((struct T_UINT32_WRITE *)(void *)(addr))-
 101:Drivers/CMSIS/Include/cmsis_gcc.h **** #endif
 102:Drivers/CMSIS/Include/cmsis_gcc.h **** #ifndef   __UNALIGNED_UINT32_READ
 103:Drivers/CMSIS/Include/cmsis_gcc.h ****   #pragma GCC diagnostic push
 104:Drivers/CMSIS/Include/cmsis_gcc.h ****   #pragma GCC diagnostic ignored "-Wpacked"
 105:Drivers/CMSIS/Include/cmsis_gcc.h ****   #pragma GCC diagnostic ignored "-Wattributes"
 106:Drivers/CMSIS/Include/cmsis_gcc.h ****   __PACKED_STRUCT T_UINT32_READ { uint32_t v; };
 107:Drivers/CMSIS/Include/cmsis_gcc.h ****   #pragma GCC diagnostic pop
 108:Drivers/CMSIS/Include/cmsis_gcc.h ****   #define __UNALIGNED_UINT32_READ(addr)          (((const struct T_UINT32_READ *)(const void *)(add
 109:Drivers/CMSIS/Include/cmsis_gcc.h **** #endif
 110:Drivers/CMSIS/Include/cmsis_gcc.h **** #ifndef   __ALIGNED
 111:Drivers/CMSIS/Include/cmsis_gcc.h ****   #define __ALIGNED(x)                           __attribute__((aligned(x)))
 112:Drivers/CMSIS/Include/cmsis_gcc.h **** #endif
 113:Drivers/CMSIS/Include/cmsis_gcc.h **** #ifndef   __RESTRICT
ARM GAS  C:\Users\james\AppData\Local\Temp\ccdeguT1.s 			page 12


 114:Drivers/CMSIS/Include/cmsis_gcc.h ****   #define __RESTRICT                             __restrict
 115:Drivers/CMSIS/Include/cmsis_gcc.h **** #endif
 116:Drivers/CMSIS/Include/cmsis_gcc.h **** 
 117:Drivers/CMSIS/Include/cmsis_gcc.h **** 
 118:Drivers/CMSIS/Include/cmsis_gcc.h **** /* ###########################  Core Function Access  ########################### */
 119:Drivers/CMSIS/Include/cmsis_gcc.h **** /** \ingroup  CMSIS_Core_FunctionInterface
 120:Drivers/CMSIS/Include/cmsis_gcc.h ****     \defgroup CMSIS_Core_RegAccFunctions CMSIS Core Register Access Functions
 121:Drivers/CMSIS/Include/cmsis_gcc.h ****   @{
 122:Drivers/CMSIS/Include/cmsis_gcc.h ****  */
 123:Drivers/CMSIS/Include/cmsis_gcc.h **** 
 124:Drivers/CMSIS/Include/cmsis_gcc.h **** /**
 125:Drivers/CMSIS/Include/cmsis_gcc.h ****   \brief   Enable IRQ Interrupts
 126:Drivers/CMSIS/Include/cmsis_gcc.h ****   \details Enables IRQ interrupts by clearing the I-bit in the CPSR.
 127:Drivers/CMSIS/Include/cmsis_gcc.h ****            Can only be executed in Privileged modes.
 128:Drivers/CMSIS/Include/cmsis_gcc.h ****  */
 129:Drivers/CMSIS/Include/cmsis_gcc.h **** __STATIC_FORCEINLINE void __enable_irq(void)
 130:Drivers/CMSIS/Include/cmsis_gcc.h **** {
 131:Drivers/CMSIS/Include/cmsis_gcc.h ****   __ASM volatile ("cpsie i" : : : "memory");
 132:Drivers/CMSIS/Include/cmsis_gcc.h **** }
 133:Drivers/CMSIS/Include/cmsis_gcc.h **** 
 134:Drivers/CMSIS/Include/cmsis_gcc.h **** 
 135:Drivers/CMSIS/Include/cmsis_gcc.h **** /**
 136:Drivers/CMSIS/Include/cmsis_gcc.h ****   \brief   Disable IRQ Interrupts
 137:Drivers/CMSIS/Include/cmsis_gcc.h ****   \details Disables IRQ interrupts by setting the I-bit in the CPSR.
 138:Drivers/CMSIS/Include/cmsis_gcc.h ****            Can only be executed in Privileged modes.
 139:Drivers/CMSIS/Include/cmsis_gcc.h ****  */
 140:Drivers/CMSIS/Include/cmsis_gcc.h **** __STATIC_FORCEINLINE void __disable_irq(void)
 173              		.loc 2 140 27 view .LVU34
 174              	.LBB6:
 141:Drivers/CMSIS/Include/cmsis_gcc.h **** {
 142:Drivers/CMSIS/Include/cmsis_gcc.h ****   __ASM volatile ("cpsid i" : : : "memory");
 175              		.loc 2 142 3 view .LVU35
 176              		.syntax unified
 177              	@ 142 "Drivers/CMSIS/Include/cmsis_gcc.h" 1
 178 0000 72B6     		cpsid i
 179              	@ 0 "" 2
 180              		.thumb
 181              		.syntax unified
 182              	.L11:
 183              	.LBE6:
 184              	.LBE5:
 342:Core/Src/main.c ****   while (1)
 185              		.loc 1 342 3 discriminator 1 view .LVU36
 343:Core/Src/main.c ****   {
 344:Core/Src/main.c ****   }
 186              		.loc 1 344 3 discriminator 1 view .LVU37
 342:Core/Src/main.c ****   while (1)
 187              		.loc 1 342 9 discriminator 1 view .LVU38
 188 0002 FEE7     		b	.L11
 189              		.cfi_endproc
 190              	.LFE75:
 192              		.section	.text.MX_ADC1_Init,"ax",%progbits
 193              		.align	1
 194              		.syntax unified
 195              		.thumb
 196              		.thumb_func
 198              	MX_ADC1_Init:
ARM GAS  C:\Users\james\AppData\Local\Temp\ccdeguT1.s 			page 13


 199              	.LFB70:
 172:Core/Src/main.c **** 
 200              		.loc 1 172 1 view -0
 201              		.cfi_startproc
 202              		@ args = 0, pretend = 0, frame = 16
 203              		@ frame_needed = 0, uses_anonymous_args = 0
 204 0000 00B5     		push	{lr}
 205              	.LCFI3:
 206              		.cfi_def_cfa_offset 4
 207              		.cfi_offset 14, -4
 208 0002 85B0     		sub	sp, sp, #20
 209              	.LCFI4:
 210              		.cfi_def_cfa_offset 24
 178:Core/Src/main.c **** 
 211              		.loc 1 178 3 view .LVU40
 178:Core/Src/main.c **** 
 212              		.loc 1 178 26 is_stmt 0 view .LVU41
 213 0004 0023     		movs	r3, #0
 214 0006 0193     		str	r3, [sp, #4]
 215 0008 0293     		str	r3, [sp, #8]
 216 000a 0393     		str	r3, [sp, #12]
 186:Core/Src/main.c ****   hadc1.Init.ScanConvMode = ADC_SCAN_DISABLE;
 217              		.loc 1 186 3 is_stmt 1 view .LVU42
 186:Core/Src/main.c ****   hadc1.Init.ScanConvMode = ADC_SCAN_DISABLE;
 218              		.loc 1 186 18 is_stmt 0 view .LVU43
 219 000c 0F48     		ldr	r0, .L18
 220 000e 104A     		ldr	r2, .L18+4
 221 0010 0260     		str	r2, [r0]
 187:Core/Src/main.c ****   hadc1.Init.ContinuousConvMode = ENABLE;
 222              		.loc 1 187 3 is_stmt 1 view .LVU44
 187:Core/Src/main.c ****   hadc1.Init.ContinuousConvMode = ENABLE;
 223              		.loc 1 187 27 is_stmt 0 view .LVU45
 224 0012 8360     		str	r3, [r0, #8]
 188:Core/Src/main.c ****   hadc1.Init.DiscontinuousConvMode = DISABLE;
 225              		.loc 1 188 3 is_stmt 1 view .LVU46
 188:Core/Src/main.c ****   hadc1.Init.DiscontinuousConvMode = DISABLE;
 226              		.loc 1 188 33 is_stmt 0 view .LVU47
 227 0014 0122     		movs	r2, #1
 228 0016 0273     		strb	r2, [r0, #12]
 189:Core/Src/main.c ****   hadc1.Init.ExternalTrigConv = ADC_SOFTWARE_START;
 229              		.loc 1 189 3 is_stmt 1 view .LVU48
 189:Core/Src/main.c ****   hadc1.Init.ExternalTrigConv = ADC_SOFTWARE_START;
 230              		.loc 1 189 36 is_stmt 0 view .LVU49
 231 0018 0375     		strb	r3, [r0, #20]
 190:Core/Src/main.c ****   hadc1.Init.DataAlign = ADC_DATAALIGN_RIGHT;
 232              		.loc 1 190 3 is_stmt 1 view .LVU50
 190:Core/Src/main.c ****   hadc1.Init.DataAlign = ADC_DATAALIGN_RIGHT;
 233              		.loc 1 190 31 is_stmt 0 view .LVU51
 234 001a 4FF46021 		mov	r1, #917504
 235 001e C161     		str	r1, [r0, #28]
 191:Core/Src/main.c ****   hadc1.Init.NbrOfConversion = 1;
 236              		.loc 1 191 3 is_stmt 1 view .LVU52
 191:Core/Src/main.c ****   hadc1.Init.NbrOfConversion = 1;
 237              		.loc 1 191 24 is_stmt 0 view .LVU53
 238 0020 4360     		str	r3, [r0, #4]
 192:Core/Src/main.c ****   if (HAL_ADC_Init(&hadc1) != HAL_OK)
 239              		.loc 1 192 3 is_stmt 1 view .LVU54
ARM GAS  C:\Users\james\AppData\Local\Temp\ccdeguT1.s 			page 14


 192:Core/Src/main.c ****   if (HAL_ADC_Init(&hadc1) != HAL_OK)
 240              		.loc 1 192 30 is_stmt 0 view .LVU55
 241 0022 0261     		str	r2, [r0, #16]
 193:Core/Src/main.c ****   {
 242              		.loc 1 193 3 is_stmt 1 view .LVU56
 193:Core/Src/main.c ****   {
 243              		.loc 1 193 7 is_stmt 0 view .LVU57
 244 0024 FFF7FEFF 		bl	HAL_ADC_Init
 245              	.LVL3:
 193:Core/Src/main.c ****   {
 246              		.loc 1 193 6 view .LVU58
 247 0028 60B9     		cbnz	r0, .L16
 200:Core/Src/main.c ****   sConfig.Rank = ADC_REGULAR_RANK_1;
 248              		.loc 1 200 3 is_stmt 1 view .LVU59
 200:Core/Src/main.c ****   sConfig.Rank = ADC_REGULAR_RANK_1;
 249              		.loc 1 200 19 is_stmt 0 view .LVU60
 250 002a 0023     		movs	r3, #0
 251 002c 0193     		str	r3, [sp, #4]
 201:Core/Src/main.c ****   sConfig.SamplingTime = ADC_SAMPLETIME_1CYCLE_5;
 252              		.loc 1 201 3 is_stmt 1 view .LVU61
 201:Core/Src/main.c ****   sConfig.SamplingTime = ADC_SAMPLETIME_1CYCLE_5;
 253              		.loc 1 201 16 is_stmt 0 view .LVU62
 254 002e 0122     		movs	r2, #1
 255 0030 0292     		str	r2, [sp, #8]
 202:Core/Src/main.c ****   if (HAL_ADC_ConfigChannel(&hadc1, &sConfig) != HAL_OK)
 256              		.loc 1 202 3 is_stmt 1 view .LVU63
 202:Core/Src/main.c ****   if (HAL_ADC_ConfigChannel(&hadc1, &sConfig) != HAL_OK)
 257              		.loc 1 202 24 is_stmt 0 view .LVU64
 258 0032 0393     		str	r3, [sp, #12]
 203:Core/Src/main.c ****   {
 259              		.loc 1 203 3 is_stmt 1 view .LVU65
 203:Core/Src/main.c ****   {
 260              		.loc 1 203 7 is_stmt 0 view .LVU66
 261 0034 01A9     		add	r1, sp, #4
 262 0036 0548     		ldr	r0, .L18
 263 0038 FFF7FEFF 		bl	HAL_ADC_ConfigChannel
 264              	.LVL4:
 203:Core/Src/main.c ****   {
 265              		.loc 1 203 6 view .LVU67
 266 003c 20B9     		cbnz	r0, .L17
 211:Core/Src/main.c **** 
 267              		.loc 1 211 1 view .LVU68
 268 003e 05B0     		add	sp, sp, #20
 269              	.LCFI5:
 270              		.cfi_remember_state
 271              		.cfi_def_cfa_offset 4
 272              		@ sp needed
 273 0040 5DF804FB 		ldr	pc, [sp], #4
 274              	.L16:
 275              	.LCFI6:
 276              		.cfi_restore_state
 195:Core/Src/main.c ****   }
 277              		.loc 1 195 5 is_stmt 1 view .LVU69
 278 0044 FFF7FEFF 		bl	Error_Handler
 279              	.LVL5:
 280              	.L17:
 205:Core/Src/main.c ****   }
ARM GAS  C:\Users\james\AppData\Local\Temp\ccdeguT1.s 			page 15


 281              		.loc 1 205 5 view .LVU70
 282 0048 FFF7FEFF 		bl	Error_Handler
 283              	.LVL6:
 284              	.L19:
 285              		.align	2
 286              	.L18:
 287 004c 00000000 		.word	.LANCHOR0
 288 0050 00240140 		.word	1073816576
 289              		.cfi_endproc
 290              	.LFE70:
 292              		.section	.text.MX_USART1_UART_Init,"ax",%progbits
 293              		.align	1
 294              		.syntax unified
 295              		.thumb
 296              		.thumb_func
 298              	MX_USART1_UART_Init:
 299              	.LFB72:
 264:Core/Src/main.c **** 
 300              		.loc 1 264 1 view -0
 301              		.cfi_startproc
 302              		@ args = 0, pretend = 0, frame = 0
 303              		@ frame_needed = 0, uses_anonymous_args = 0
 304 0000 08B5     		push	{r3, lr}
 305              	.LCFI7:
 306              		.cfi_def_cfa_offset 8
 307              		.cfi_offset 3, -8
 308              		.cfi_offset 14, -4
 273:Core/Src/main.c ****   huart1.Init.BaudRate = 9600;
 309              		.loc 1 273 3 view .LVU72
 273:Core/Src/main.c ****   huart1.Init.BaudRate = 9600;
 310              		.loc 1 273 19 is_stmt 0 view .LVU73
 311 0002 0A48     		ldr	r0, .L24
 312 0004 0A4B     		ldr	r3, .L24+4
 313 0006 0360     		str	r3, [r0]
 274:Core/Src/main.c ****   huart1.Init.WordLength = UART_WORDLENGTH_8B;
 314              		.loc 1 274 3 is_stmt 1 view .LVU74
 274:Core/Src/main.c ****   huart1.Init.WordLength = UART_WORDLENGTH_8B;
 315              		.loc 1 274 24 is_stmt 0 view .LVU75
 316 0008 4FF41653 		mov	r3, #9600
 317 000c 4360     		str	r3, [r0, #4]
 275:Core/Src/main.c ****   huart1.Init.StopBits = UART_STOPBITS_1;
 318              		.loc 1 275 3 is_stmt 1 view .LVU76
 275:Core/Src/main.c ****   huart1.Init.StopBits = UART_STOPBITS_1;
 319              		.loc 1 275 26 is_stmt 0 view .LVU77
 320 000e 0023     		movs	r3, #0
 321 0010 8360     		str	r3, [r0, #8]
 276:Core/Src/main.c ****   huart1.Init.Parity = UART_PARITY_NONE;
 322              		.loc 1 276 3 is_stmt 1 view .LVU78
 276:Core/Src/main.c ****   huart1.Init.Parity = UART_PARITY_NONE;
 323              		.loc 1 276 24 is_stmt 0 view .LVU79
 324 0012 C360     		str	r3, [r0, #12]
 277:Core/Src/main.c ****   huart1.Init.Mode = UART_MODE_TX_RX;
 325              		.loc 1 277 3 is_stmt 1 view .LVU80
 277:Core/Src/main.c ****   huart1.Init.Mode = UART_MODE_TX_RX;
 326              		.loc 1 277 22 is_stmt 0 view .LVU81
 327 0014 0361     		str	r3, [r0, #16]
 278:Core/Src/main.c ****   huart1.Init.HwFlowCtl = UART_HWCONTROL_NONE;
ARM GAS  C:\Users\james\AppData\Local\Temp\ccdeguT1.s 			page 16


 328              		.loc 1 278 3 is_stmt 1 view .LVU82
 278:Core/Src/main.c ****   huart1.Init.HwFlowCtl = UART_HWCONTROL_NONE;
 329              		.loc 1 278 20 is_stmt 0 view .LVU83
 330 0016 0C22     		movs	r2, #12
 331 0018 4261     		str	r2, [r0, #20]
 279:Core/Src/main.c ****   huart1.Init.OverSampling = UART_OVERSAMPLING_16;
 332              		.loc 1 279 3 is_stmt 1 view .LVU84
 279:Core/Src/main.c ****   huart1.Init.OverSampling = UART_OVERSAMPLING_16;
 333              		.loc 1 279 25 is_stmt 0 view .LVU85
 334 001a 8361     		str	r3, [r0, #24]
 280:Core/Src/main.c ****   if (HAL_UART_Init(&huart1) != HAL_OK)
 335              		.loc 1 280 3 is_stmt 1 view .LVU86
 280:Core/Src/main.c ****   if (HAL_UART_Init(&huart1) != HAL_OK)
 336              		.loc 1 280 28 is_stmt 0 view .LVU87
 337 001c C361     		str	r3, [r0, #28]
 281:Core/Src/main.c ****   {
 338              		.loc 1 281 3 is_stmt 1 view .LVU88
 281:Core/Src/main.c ****   {
 339              		.loc 1 281 7 is_stmt 0 view .LVU89
 340 001e FFF7FEFF 		bl	HAL_UART_Init
 341              	.LVL7:
 281:Core/Src/main.c ****   {
 342              		.loc 1 281 6 view .LVU90
 343 0022 00B9     		cbnz	r0, .L23
 289:Core/Src/main.c **** 
 344              		.loc 1 289 1 view .LVU91
 345 0024 08BD     		pop	{r3, pc}
 346              	.L23:
 283:Core/Src/main.c ****   }
 347              		.loc 1 283 5 is_stmt 1 view .LVU92
 348 0026 FFF7FEFF 		bl	Error_Handler
 349              	.LVL8:
 350              	.L25:
 351 002a 00BF     		.align	2
 352              	.L24:
 353 002c 00000000 		.word	.LANCHOR1
 354 0030 00380140 		.word	1073821696
 355              		.cfi_endproc
 356              	.LFE72:
 358              		.section	.text.MX_TIM2_Init,"ax",%progbits
 359              		.align	1
 360              		.syntax unified
 361              		.thumb
 362              		.thumb_func
 364              	MX_TIM2_Init:
 365              	.LFB71:
 219:Core/Src/main.c **** 
 366              		.loc 1 219 1 view -0
 367              		.cfi_startproc
 368              		@ args = 0, pretend = 0, frame = 24
 369              		@ frame_needed = 0, uses_anonymous_args = 0
 370 0000 00B5     		push	{lr}
 371              	.LCFI8:
 372              		.cfi_def_cfa_offset 4
 373              		.cfi_offset 14, -4
 374 0002 87B0     		sub	sp, sp, #28
 375              	.LCFI9:
ARM GAS  C:\Users\james\AppData\Local\Temp\ccdeguT1.s 			page 17


 376              		.cfi_def_cfa_offset 32
 225:Core/Src/main.c ****   TIM_MasterConfigTypeDef sMasterConfig = {0};
 377              		.loc 1 225 3 view .LVU94
 225:Core/Src/main.c ****   TIM_MasterConfigTypeDef sMasterConfig = {0};
 378              		.loc 1 225 26 is_stmt 0 view .LVU95
 379 0004 0023     		movs	r3, #0
 380 0006 0293     		str	r3, [sp, #8]
 381 0008 0393     		str	r3, [sp, #12]
 382 000a 0493     		str	r3, [sp, #16]
 383 000c 0593     		str	r3, [sp, #20]
 226:Core/Src/main.c **** 
 384              		.loc 1 226 3 is_stmt 1 view .LVU96
 226:Core/Src/main.c **** 
 385              		.loc 1 226 27 is_stmt 0 view .LVU97
 386 000e 0093     		str	r3, [sp]
 387 0010 0193     		str	r3, [sp, #4]
 231:Core/Src/main.c ****   htim2.Init.Prescaler = 7999;
 388              		.loc 1 231 3 is_stmt 1 view .LVU98
 231:Core/Src/main.c ****   htim2.Init.Prescaler = 7999;
 389              		.loc 1 231 18 is_stmt 0 view .LVU99
 390 0012 1448     		ldr	r0, .L34
 391 0014 4FF08042 		mov	r2, #1073741824
 392 0018 0260     		str	r2, [r0]
 232:Core/Src/main.c ****   htim2.Init.CounterMode = TIM_COUNTERMODE_UP;
 393              		.loc 1 232 3 is_stmt 1 view .LVU100
 232:Core/Src/main.c ****   htim2.Init.CounterMode = TIM_COUNTERMODE_UP;
 394              		.loc 1 232 24 is_stmt 0 view .LVU101
 395 001a 41F63F72 		movw	r2, #7999
 396 001e 4260     		str	r2, [r0, #4]
 233:Core/Src/main.c ****   htim2.Init.Period = 9;
 397              		.loc 1 233 3 is_stmt 1 view .LVU102
 233:Core/Src/main.c ****   htim2.Init.Period = 9;
 398              		.loc 1 233 26 is_stmt 0 view .LVU103
 399 0020 8360     		str	r3, [r0, #8]
 234:Core/Src/main.c ****   htim2.Init.ClockDivision = TIM_CLOCKDIVISION_DIV1;
 400              		.loc 1 234 3 is_stmt 1 view .LVU104
 234:Core/Src/main.c ****   htim2.Init.ClockDivision = TIM_CLOCKDIVISION_DIV1;
 401              		.loc 1 234 21 is_stmt 0 view .LVU105
 402 0022 0922     		movs	r2, #9
 403 0024 C260     		str	r2, [r0, #12]
 235:Core/Src/main.c ****   htim2.Init.AutoReloadPreload = TIM_AUTORELOAD_PRELOAD_DISABLE;
 404              		.loc 1 235 3 is_stmt 1 view .LVU106
 235:Core/Src/main.c ****   htim2.Init.AutoReloadPreload = TIM_AUTORELOAD_PRELOAD_DISABLE;
 405              		.loc 1 235 28 is_stmt 0 view .LVU107
 406 0026 0361     		str	r3, [r0, #16]
 236:Core/Src/main.c ****   if (HAL_TIM_Base_Init(&htim2) != HAL_OK)
 407              		.loc 1 236 3 is_stmt 1 view .LVU108
 236:Core/Src/main.c ****   if (HAL_TIM_Base_Init(&htim2) != HAL_OK)
 408              		.loc 1 236 32 is_stmt 0 view .LVU109
 409 0028 8361     		str	r3, [r0, #24]
 237:Core/Src/main.c ****   {
 410              		.loc 1 237 3 is_stmt 1 view .LVU110
 237:Core/Src/main.c ****   {
 411              		.loc 1 237 7 is_stmt 0 view .LVU111
 412 002a FFF7FEFF 		bl	HAL_TIM_Base_Init
 413              	.LVL9:
 237:Core/Src/main.c ****   {
ARM GAS  C:\Users\james\AppData\Local\Temp\ccdeguT1.s 			page 18


 414              		.loc 1 237 6 view .LVU112
 415 002e 90B9     		cbnz	r0, .L31
 241:Core/Src/main.c ****   if (HAL_TIM_ConfigClockSource(&htim2, &sClockSourceConfig) != HAL_OK)
 416              		.loc 1 241 3 is_stmt 1 view .LVU113
 241:Core/Src/main.c ****   if (HAL_TIM_ConfigClockSource(&htim2, &sClockSourceConfig) != HAL_OK)
 417              		.loc 1 241 34 is_stmt 0 view .LVU114
 418 0030 4FF48053 		mov	r3, #4096
 419 0034 0293     		str	r3, [sp, #8]
 242:Core/Src/main.c ****   {
 420              		.loc 1 242 3 is_stmt 1 view .LVU115
 242:Core/Src/main.c ****   {
 421              		.loc 1 242 7 is_stmt 0 view .LVU116
 422 0036 02A9     		add	r1, sp, #8
 423 0038 0A48     		ldr	r0, .L34
 424 003a FFF7FEFF 		bl	HAL_TIM_ConfigClockSource
 425              	.LVL10:
 242:Core/Src/main.c ****   {
 426              		.loc 1 242 6 view .LVU117
 427 003e 60B9     		cbnz	r0, .L32
 246:Core/Src/main.c ****   sMasterConfig.MasterSlaveMode = TIM_MASTERSLAVEMODE_DISABLE;
 428              		.loc 1 246 3 is_stmt 1 view .LVU118
 246:Core/Src/main.c ****   sMasterConfig.MasterSlaveMode = TIM_MASTERSLAVEMODE_DISABLE;
 429              		.loc 1 246 37 is_stmt 0 view .LVU119
 430 0040 0023     		movs	r3, #0
 431 0042 0093     		str	r3, [sp]
 247:Core/Src/main.c ****   if (HAL_TIMEx_MasterConfigSynchronization(&htim2, &sMasterConfig) != HAL_OK)
 432              		.loc 1 247 3 is_stmt 1 view .LVU120
 247:Core/Src/main.c ****   if (HAL_TIMEx_MasterConfigSynchronization(&htim2, &sMasterConfig) != HAL_OK)
 433              		.loc 1 247 33 is_stmt 0 view .LVU121
 434 0044 0193     		str	r3, [sp, #4]
 248:Core/Src/main.c ****   {
 435              		.loc 1 248 3 is_stmt 1 view .LVU122
 248:Core/Src/main.c ****   {
 436              		.loc 1 248 7 is_stmt 0 view .LVU123
 437 0046 6946     		mov	r1, sp
 438 0048 0648     		ldr	r0, .L34
 439 004a FFF7FEFF 		bl	HAL_TIMEx_MasterConfigSynchronization
 440              	.LVL11:
 248:Core/Src/main.c ****   {
 441              		.loc 1 248 6 view .LVU124
 442 004e 30B9     		cbnz	r0, .L33
 256:Core/Src/main.c **** 
 443              		.loc 1 256 1 view .LVU125
 444 0050 07B0     		add	sp, sp, #28
 445              	.LCFI10:
 446              		.cfi_remember_state
 447              		.cfi_def_cfa_offset 4
 448              		@ sp needed
 449 0052 5DF804FB 		ldr	pc, [sp], #4
 450              	.L31:
 451              	.LCFI11:
 452              		.cfi_restore_state
 239:Core/Src/main.c ****   }
 453              		.loc 1 239 5 is_stmt 1 view .LVU126
 454 0056 FFF7FEFF 		bl	Error_Handler
 455              	.LVL12:
 456              	.L32:
ARM GAS  C:\Users\james\AppData\Local\Temp\ccdeguT1.s 			page 19


 244:Core/Src/main.c ****   }
 457              		.loc 1 244 5 view .LVU127
 458 005a FFF7FEFF 		bl	Error_Handler
 459              	.LVL13:
 460              	.L33:
 250:Core/Src/main.c ****   }
 461              		.loc 1 250 5 view .LVU128
 462 005e FFF7FEFF 		bl	Error_Handler
 463              	.LVL14:
 464              	.L35:
 465 0062 00BF     		.align	2
 466              	.L34:
 467 0064 00000000 		.word	.LANCHOR2
 468              		.cfi_endproc
 469              	.LFE71:
 471              		.section	.text.SystemClock_Config,"ax",%progbits
 472              		.align	1
 473              		.global	SystemClock_Config
 474              		.syntax unified
 475              		.thumb
 476              		.thumb_func
 478              	SystemClock_Config:
 479              	.LFB69:
 128:Core/Src/main.c ****   RCC_OscInitTypeDef RCC_OscInitStruct = {0};
 480              		.loc 1 128 1 view -0
 481              		.cfi_startproc
 482              		@ args = 0, pretend = 0, frame = 80
 483              		@ frame_needed = 0, uses_anonymous_args = 0
 484 0000 00B5     		push	{lr}
 485              	.LCFI12:
 486              		.cfi_def_cfa_offset 4
 487              		.cfi_offset 14, -4
 488 0002 95B0     		sub	sp, sp, #84
 489              	.LCFI13:
 490              		.cfi_def_cfa_offset 88
 129:Core/Src/main.c ****   RCC_ClkInitTypeDef RCC_ClkInitStruct = {0};
 491              		.loc 1 129 3 view .LVU130
 129:Core/Src/main.c ****   RCC_ClkInitTypeDef RCC_ClkInitStruct = {0};
 492              		.loc 1 129 22 is_stmt 0 view .LVU131
 493 0004 2822     		movs	r2, #40
 494 0006 0021     		movs	r1, #0
 495 0008 0DEB0200 		add	r0, sp, r2
 496 000c FFF7FEFF 		bl	memset
 497              	.LVL15:
 130:Core/Src/main.c ****   RCC_PeriphCLKInitTypeDef PeriphClkInit = {0};
 498              		.loc 1 130 3 is_stmt 1 view .LVU132
 130:Core/Src/main.c ****   RCC_PeriphCLKInitTypeDef PeriphClkInit = {0};
 499              		.loc 1 130 22 is_stmt 0 view .LVU133
 500 0010 0023     		movs	r3, #0
 501 0012 0593     		str	r3, [sp, #20]
 502 0014 0693     		str	r3, [sp, #24]
 503 0016 0793     		str	r3, [sp, #28]
 504 0018 0893     		str	r3, [sp, #32]
 505 001a 0993     		str	r3, [sp, #36]
 131:Core/Src/main.c **** 
 506              		.loc 1 131 3 is_stmt 1 view .LVU134
 131:Core/Src/main.c **** 
ARM GAS  C:\Users\james\AppData\Local\Temp\ccdeguT1.s 			page 20


 507              		.loc 1 131 28 is_stmt 0 view .LVU135
 508 001c 0193     		str	r3, [sp, #4]
 509 001e 0293     		str	r3, [sp, #8]
 510 0020 0393     		str	r3, [sp, #12]
 511 0022 0493     		str	r3, [sp, #16]
 136:Core/Src/main.c ****   RCC_OscInitStruct.HSIState = RCC_HSI_ON;
 512              		.loc 1 136 3 is_stmt 1 view .LVU136
 136:Core/Src/main.c ****   RCC_OscInitStruct.HSIState = RCC_HSI_ON;
 513              		.loc 1 136 36 is_stmt 0 view .LVU137
 514 0024 0223     		movs	r3, #2
 515 0026 0A93     		str	r3, [sp, #40]
 137:Core/Src/main.c ****   RCC_OscInitStruct.HSICalibrationValue = RCC_HSICALIBRATION_DEFAULT;
 516              		.loc 1 137 3 is_stmt 1 view .LVU138
 137:Core/Src/main.c ****   RCC_OscInitStruct.HSICalibrationValue = RCC_HSICALIBRATION_DEFAULT;
 517              		.loc 1 137 30 is_stmt 0 view .LVU139
 518 0028 0123     		movs	r3, #1
 519 002a 0E93     		str	r3, [sp, #56]
 138:Core/Src/main.c ****   RCC_OscInitStruct.PLL.PLLState = RCC_PLL_NONE;
 520              		.loc 1 138 3 is_stmt 1 view .LVU140
 138:Core/Src/main.c ****   RCC_OscInitStruct.PLL.PLLState = RCC_PLL_NONE;
 521              		.loc 1 138 41 is_stmt 0 view .LVU141
 522 002c 1023     		movs	r3, #16
 523 002e 0F93     		str	r3, [sp, #60]
 139:Core/Src/main.c ****   if (HAL_RCC_OscConfig(&RCC_OscInitStruct) != HAL_OK)
 524              		.loc 1 139 3 is_stmt 1 view .LVU142
 140:Core/Src/main.c ****   {
 525              		.loc 1 140 3 view .LVU143
 140:Core/Src/main.c ****   {
 526              		.loc 1 140 7 is_stmt 0 view .LVU144
 527 0030 0AA8     		add	r0, sp, #40
 528 0032 FFF7FEFF 		bl	HAL_RCC_OscConfig
 529              	.LVL16:
 140:Core/Src/main.c ****   {
 530              		.loc 1 140 6 view .LVU145
 531 0036 A8B9     		cbnz	r0, .L41
 147:Core/Src/main.c ****                               |RCC_CLOCKTYPE_PCLK1|RCC_CLOCKTYPE_PCLK2;
 532              		.loc 1 147 3 is_stmt 1 view .LVU146
 147:Core/Src/main.c ****                               |RCC_CLOCKTYPE_PCLK1|RCC_CLOCKTYPE_PCLK2;
 533              		.loc 1 147 31 is_stmt 0 view .LVU147
 534 0038 0F23     		movs	r3, #15
 535 003a 0593     		str	r3, [sp, #20]
 149:Core/Src/main.c ****   RCC_ClkInitStruct.AHBCLKDivider = RCC_SYSCLK_DIV1;
 536              		.loc 1 149 3 is_stmt 1 view .LVU148
 149:Core/Src/main.c ****   RCC_ClkInitStruct.AHBCLKDivider = RCC_SYSCLK_DIV1;
 537              		.loc 1 149 34 is_stmt 0 view .LVU149
 538 003c 0021     		movs	r1, #0
 539 003e 0691     		str	r1, [sp, #24]
 150:Core/Src/main.c ****   RCC_ClkInitStruct.APB1CLKDivider = RCC_HCLK_DIV1;
 540              		.loc 1 150 3 is_stmt 1 view .LVU150
 150:Core/Src/main.c ****   RCC_ClkInitStruct.APB1CLKDivider = RCC_HCLK_DIV1;
 541              		.loc 1 150 35 is_stmt 0 view .LVU151
 542 0040 0791     		str	r1, [sp, #28]
 151:Core/Src/main.c ****   RCC_ClkInitStruct.APB2CLKDivider = RCC_HCLK_DIV1;
 543              		.loc 1 151 3 is_stmt 1 view .LVU152
 151:Core/Src/main.c ****   RCC_ClkInitStruct.APB2CLKDivider = RCC_HCLK_DIV1;
 544              		.loc 1 151 36 is_stmt 0 view .LVU153
 545 0042 0891     		str	r1, [sp, #32]
ARM GAS  C:\Users\james\AppData\Local\Temp\ccdeguT1.s 			page 21


 152:Core/Src/main.c **** 
 546              		.loc 1 152 3 is_stmt 1 view .LVU154
 152:Core/Src/main.c **** 
 547              		.loc 1 152 36 is_stmt 0 view .LVU155
 548 0044 0991     		str	r1, [sp, #36]
 154:Core/Src/main.c ****   {
 549              		.loc 1 154 3 is_stmt 1 view .LVU156
 154:Core/Src/main.c ****   {
 550              		.loc 1 154 7 is_stmt 0 view .LVU157
 551 0046 05A8     		add	r0, sp, #20
 552 0048 FFF7FEFF 		bl	HAL_RCC_ClockConfig
 553              	.LVL17:
 154:Core/Src/main.c ****   {
 554              		.loc 1 154 6 view .LVU158
 555 004c 60B9     		cbnz	r0, .L42
 158:Core/Src/main.c ****   PeriphClkInit.AdcClockSelection = RCC_ADCPCLK2_DIV2;
 556              		.loc 1 158 3 is_stmt 1 view .LVU159
 158:Core/Src/main.c ****   PeriphClkInit.AdcClockSelection = RCC_ADCPCLK2_DIV2;
 557              		.loc 1 158 38 is_stmt 0 view .LVU160
 558 004e 0223     		movs	r3, #2
 559 0050 0193     		str	r3, [sp, #4]
 159:Core/Src/main.c ****   if (HAL_RCCEx_PeriphCLKConfig(&PeriphClkInit) != HAL_OK)
 560              		.loc 1 159 3 is_stmt 1 view .LVU161
 159:Core/Src/main.c ****   if (HAL_RCCEx_PeriphCLKConfig(&PeriphClkInit) != HAL_OK)
 561              		.loc 1 159 35 is_stmt 0 view .LVU162
 562 0052 0023     		movs	r3, #0
 563 0054 0393     		str	r3, [sp, #12]
 160:Core/Src/main.c ****   {
 564              		.loc 1 160 3 is_stmt 1 view .LVU163
 160:Core/Src/main.c ****   {
 565              		.loc 1 160 7 is_stmt 0 view .LVU164
 566 0056 01A8     		add	r0, sp, #4
 567 0058 FFF7FEFF 		bl	HAL_RCCEx_PeriphCLKConfig
 568              	.LVL18:
 160:Core/Src/main.c ****   {
 569              		.loc 1 160 6 view .LVU165
 570 005c 30B9     		cbnz	r0, .L43
 164:Core/Src/main.c **** 
 571              		.loc 1 164 1 view .LVU166
 572 005e 15B0     		add	sp, sp, #84
 573              	.LCFI14:
 574              		.cfi_remember_state
 575              		.cfi_def_cfa_offset 4
 576              		@ sp needed
 577 0060 5DF804FB 		ldr	pc, [sp], #4
 578              	.L41:
 579              	.LCFI15:
 580              		.cfi_restore_state
 142:Core/Src/main.c ****   }
 581              		.loc 1 142 5 is_stmt 1 view .LVU167
 582 0064 FFF7FEFF 		bl	Error_Handler
 583              	.LVL19:
 584              	.L42:
 156:Core/Src/main.c ****   }
 585              		.loc 1 156 5 view .LVU168
 586 0068 FFF7FEFF 		bl	Error_Handler
 587              	.LVL20:
ARM GAS  C:\Users\james\AppData\Local\Temp\ccdeguT1.s 			page 22


 588              	.L43:
 162:Core/Src/main.c ****   }
 589              		.loc 1 162 5 view .LVU169
 590 006c FFF7FEFF 		bl	Error_Handler
 591              	.LVL21:
 592              		.cfi_endproc
 593              	.LFE69:
 595              		.section	.text.main,"ax",%progbits
 596              		.align	1
 597              		.global	main
 598              		.syntax unified
 599              		.thumb
 600              		.thumb_func
 602              	main:
 603              	.LFB68:
  73:Core/Src/main.c ****   /* USER CODE BEGIN 1 */
 604              		.loc 1 73 1 view -0
 605              		.cfi_startproc
 606              		@ Volatile: function does not return.
 607              		@ args = 0, pretend = 0, frame = 0
 608              		@ frame_needed = 0, uses_anonymous_args = 0
 609 0000 08B5     		push	{r3, lr}
 610              	.LCFI16:
 611              		.cfi_def_cfa_offset 8
 612              		.cfi_offset 3, -8
 613              		.cfi_offset 14, -4
  81:Core/Src/main.c **** 
 614              		.loc 1 81 3 view .LVU171
 615 0002 FFF7FEFF 		bl	HAL_Init
 616              	.LVL22:
  88:Core/Src/main.c **** 
 617              		.loc 1 88 3 view .LVU172
 618 0006 FFF7FEFF 		bl	SystemClock_Config
 619              	.LVL23:
  95:Core/Src/main.c ****   MX_ADC1_Init();
 620              		.loc 1 95 3 view .LVU173
 621 000a FFF7FEFF 		bl	MX_GPIO_Init
 622              	.LVL24:
  96:Core/Src/main.c ****   MX_USART1_UART_Init();
 623              		.loc 1 96 3 view .LVU174
 624 000e FFF7FEFF 		bl	MX_ADC1_Init
 625              	.LVL25:
  97:Core/Src/main.c ****   MX_TIM2_Init();
 626              		.loc 1 97 3 view .LVU175
 627 0012 FFF7FEFF 		bl	MX_USART1_UART_Init
 628              	.LVL26:
  98:Core/Src/main.c ****   /* USER CODE BEGIN 2 */
 629              		.loc 1 98 3 view .LVU176
 630 0016 FFF7FEFF 		bl	MX_TIM2_Init
 631              	.LVL27:
 100:Core/Src/main.c ****   SensorInit();
 632              		.loc 1 100 3 view .LVU177
 633 001a 0A48     		ldr	r0, .L49
 634 001c FFF7FEFF 		bl	HAL_TIM_Base_Start_IT
 635              	.LVL28:
 101:Core/Src/main.c ****   TransceiverInit();
 636              		.loc 1 101 3 view .LVU178
ARM GAS  C:\Users\james\AppData\Local\Temp\ccdeguT1.s 			page 23


 637 0020 FFF7FEFF 		bl	SensorInit
 638              	.LVL29:
 102:Core/Src/main.c ****   /* USER CODE END 2 */
 639              		.loc 1 102 3 view .LVU179
 640 0024 FFF7FEFF 		bl	TransceiverInit
 641              	.LVL30:
 642 0028 04E0     		b	.L46
 643              	.L48:
 115:Core/Src/main.c ****     }
 644              		.loc 1 115 7 view .LVU180
 645 002a FFF7FEFF 		bl	InvokeCommand
 646              	.LVL31:
 647              	.L45:
 118:Core/Src/main.c ****   }
 648              		.loc 1 118 5 view .LVU181
 649 002e 0A20     		movs	r0, #10
 650 0030 FFF7FEFF 		bl	HAL_Delay
 651              	.LVL32:
 107:Core/Src/main.c ****   {
 652              		.loc 1 107 9 view .LVU182
 653              	.L46:
 107:Core/Src/main.c ****   {
 654              		.loc 1 107 3 view .LVU183
 112:Core/Src/main.c ****     if(invokeCommandFlag)
 655              		.loc 1 112 5 view .LVU184
 656 0034 FFF7FEFF 		bl	CheckCommand
 657              	.LVL33:
 113:Core/Src/main.c ****     {
 658              		.loc 1 113 5 view .LVU185
 113:Core/Src/main.c ****     {
 659              		.loc 1 113 8 is_stmt 0 view .LVU186
 660 0038 034B     		ldr	r3, .L49+4
 661 003a 1B78     		ldrb	r3, [r3]	@ zero_extendqisi2
 113:Core/Src/main.c ****     {
 662              		.loc 1 113 7 view .LVU187
 663 003c 002B     		cmp	r3, #0
 664 003e F4D1     		bne	.L48
 665 0040 F5E7     		b	.L45
 666              	.L50:
 667 0042 00BF     		.align	2
 668              	.L49:
 669 0044 00000000 		.word	.LANCHOR2
 670 0048 00000000 		.word	invokeCommandFlag
 671              		.cfi_endproc
 672              	.LFE68:
 674              		.global	huart1
 675              		.global	htim2
 676              		.global	hadc1
 677              		.section	.bss.hadc1,"aw",%nobits
 678              		.align	2
 679              		.set	.LANCHOR0,. + 0
 682              	hadc1:
 683 0000 00000000 		.space	48
 683      00000000 
 683      00000000 
 683      00000000 
 683      00000000 
ARM GAS  C:\Users\james\AppData\Local\Temp\ccdeguT1.s 			page 24


 684              		.section	.bss.htim2,"aw",%nobits
 685              		.align	2
 686              		.set	.LANCHOR2,. + 0
 689              	htim2:
 690 0000 00000000 		.space	72
 690      00000000 
 690      00000000 
 690      00000000 
 690      00000000 
 691              		.section	.bss.huart1,"aw",%nobits
 692              		.align	2
 693              		.set	.LANCHOR1,. + 0
 696              	huart1:
 697 0000 00000000 		.space	72
 697      00000000 
 697      00000000 
 697      00000000 
 697      00000000 
 698              		.text
 699              	.Letext0:
 700              		.file 3 "c:\\program files (x86)\\gnu arm embedded toolchain\\10 2021.10\\arm-none-eabi\\include\\
 701              		.file 4 "c:\\program files (x86)\\gnu arm embedded toolchain\\10 2021.10\\arm-none-eabi\\include\\
 702              		.file 5 "Drivers/CMSIS/Device/ST/STM32F1xx/Include/stm32f103x6.h"
 703              		.file 6 "Drivers/CMSIS/Device/ST/STM32F1xx/Include/stm32f1xx.h"
 704              		.file 7 "Drivers/STM32F1xx_HAL_Driver/Inc/stm32f1xx_hal_def.h"
 705              		.file 8 "Drivers/STM32F1xx_HAL_Driver/Inc/stm32f1xx_hal_rcc.h"
 706              		.file 9 "Drivers/STM32F1xx_HAL_Driver/Inc/stm32f1xx_hal_rcc_ex.h"
 707              		.file 10 "Drivers/STM32F1xx_HAL_Driver/Inc/stm32f1xx_hal_gpio.h"
 708              		.file 11 "Drivers/STM32F1xx_HAL_Driver/Inc/stm32f1xx_hal_dma.h"
 709              		.file 12 "Drivers/STM32F1xx_HAL_Driver/Inc/stm32f1xx_hal_adc.h"
 710              		.file 13 "Drivers/STM32F1xx_HAL_Driver/Inc/stm32f1xx_hal_tim.h"
 711              		.file 14 "Drivers/STM32F1xx_HAL_Driver/Inc/stm32f1xx_hal_uart.h"
 712              		.file 15 "Core/Inc/transceiver.h"
 713              		.file 16 "Core/Inc/processing.h"
 714              		.file 17 "Drivers/STM32F1xx_HAL_Driver/Inc/stm32f1xx_hal_tim_ex.h"
 715              		.file 18 "Drivers/STM32F1xx_HAL_Driver/Inc/stm32f1xx_hal.h"
 716              		.file 19 "Core/Inc/sensor.h"
 717              		.file 20 "<built-in>"
ARM GAS  C:\Users\james\AppData\Local\Temp\ccdeguT1.s 			page 25

