ARM GAS  C:\Users\james\AppData\Local\Temp\ccj080Wq.s 			page 1


   1              		.cpu cortex-m3
   2              		.arch armv7-m
   3              		.fpu softvfp
   4              		.eabi_attribute 20, 1
   5              		.eabi_attribute 21, 1
   6              		.eabi_attribute 23, 3
   7              		.eabi_attribute 24, 1
   8              		.eabi_attribute 25, 1
   9              		.eabi_attribute 26, 1
  10              		.eabi_attribute 30, 1
  11              		.eabi_attribute 34, 1
  12              		.eabi_attribute 18, 4
  13              		.file	"sensor.c"
  14              		.text
  15              	.Ltext0:
  16              		.cfi_sections	.debug_frame
  17              		.section	.text.SensorInit,"ax",%progbits
  18              		.align	1
  19              		.global	SensorInit
  20              		.syntax unified
  21              		.thumb
  22              		.thumb_func
  24              	SensorInit:
  25              	.LFB65:
  26              		.file 1 "Core/Src/sensor.c"
   1:Core/Src/sensor.c **** #include "sensor.h"
   2:Core/Src/sensor.c **** 
   3:Core/Src/sensor.c **** extern ADC_HandleTypeDef hadc1;
   4:Core/Src/sensor.c **** 
   5:Core/Src/sensor.c **** uint32_t sensorValue = 0;
   6:Core/Src/sensor.c **** 
   7:Core/Src/sensor.c **** void SensorInit(void)
   8:Core/Src/sensor.c **** {
  27              		.loc 1 8 1 view -0
  28              		.cfi_startproc
  29              		@ args = 0, pretend = 0, frame = 0
  30              		@ frame_needed = 0, uses_anonymous_args = 0
  31 0000 08B5     		push	{r3, lr}
  32              	.LCFI0:
  33              		.cfi_def_cfa_offset 8
  34              		.cfi_offset 3, -8
  35              		.cfi_offset 14, -4
   9:Core/Src/sensor.c ****     HAL_ADC_Start(&hadc1);
  36              		.loc 1 9 5 view .LVU1
  37 0002 0248     		ldr	r0, .L3
  38 0004 FFF7FEFF 		bl	HAL_ADC_Start
  39              	.LVL0:
  10:Core/Src/sensor.c **** }
  40              		.loc 1 10 1 is_stmt 0 view .LVU2
  41 0008 08BD     		pop	{r3, pc}
  42              	.L4:
  43 000a 00BF     		.align	2
  44              	.L3:
  45 000c 00000000 		.word	hadc1
  46              		.cfi_endproc
  47              	.LFE65:
  49              		.section	.text.GetSensorValue,"ax",%progbits
ARM GAS  C:\Users\james\AppData\Local\Temp\ccj080Wq.s 			page 2


  50              		.align	1
  51              		.global	GetSensorValue
  52              		.syntax unified
  53              		.thumb
  54              		.thumb_func
  56              	GetSensorValue:
  57              	.LFB66:
  11:Core/Src/sensor.c **** 
  12:Core/Src/sensor.c **** uint32_t GetSensorValue(void)
  13:Core/Src/sensor.c **** {
  58              		.loc 1 13 1 is_stmt 1 view -0
  59              		.cfi_startproc
  60              		@ args = 0, pretend = 0, frame = 0
  61              		@ frame_needed = 0, uses_anonymous_args = 0
  62 0000 08B5     		push	{r3, lr}
  63              	.LCFI1:
  64              		.cfi_def_cfa_offset 8
  65              		.cfi_offset 3, -8
  66              		.cfi_offset 14, -4
  14:Core/Src/sensor.c ****     sensorValue = HAL_ADC_GetValue(&hadc1);
  67              		.loc 1 14 5 view .LVU4
  68              		.loc 1 14 19 is_stmt 0 view .LVU5
  69 0002 0348     		ldr	r0, .L7
  70 0004 FFF7FEFF 		bl	HAL_ADC_GetValue
  71              	.LVL1:
  72              		.loc 1 14 17 view .LVU6
  73 0008 024B     		ldr	r3, .L7+4
  74 000a 1860     		str	r0, [r3]
  15:Core/Src/sensor.c **** 
  16:Core/Src/sensor.c ****     return sensorValue;
  75              		.loc 1 16 5 is_stmt 1 view .LVU7
  17:Core/Src/sensor.c **** }...
  76              		.loc 1 17 1 is_stmt 0 view .LVU8
  77 000c 08BD     		pop	{r3, pc}
  78              	.L8:
  79 000e 00BF     		.align	2
  80              	.L7:
  81 0010 00000000 		.word	hadc1
  82 0014 00000000 		.word	.LANCHOR0
  83              		.cfi_endproc
  84              	.LFE66:
  86              		.global	sensorValue
  87              		.section	.bss.sensorValue,"aw",%nobits
  88              		.align	2
  89              		.set	.LANCHOR0,. + 0
  92              	sensorValue:
  93 0000 00000000 		.space	4
  94              		.text
  95              	.Letext0:
  96              		.file 2 "c:\\program files (x86)\\gnu arm embedded toolchain\\10 2021.10\\arm-none-eabi\\include\\
  97              		.file 3 "c:\\program files (x86)\\gnu arm embedded toolchain\\10 2021.10\\arm-none-eabi\\include\\
  98              		.file 4 "Drivers/CMSIS/Device/ST/STM32F1xx/Include/stm32f103x6.h"
  99              		.file 5 "Drivers/CMSIS/Device/ST/STM32F1xx/Include/stm32f1xx.h"
 100              		.file 6 "Drivers/STM32F1xx_HAL_Driver/Inc/stm32f1xx_hal_def.h"
 101              		.file 7 "Drivers/STM32F1xx_HAL_Driver/Inc/stm32f1xx_hal_dma.h"
 102              		.file 8 "Drivers/STM32F1xx_HAL_Driver/Inc/stm32f1xx_hal_adc.h"
ARM GAS  C:\Users\james\AppData\Local\Temp\ccj080Wq.s 			page 3

